; Function Attrs: nounwind uwtable
define i32 @stbtt_GetCodepointShape(ptr noundef readonly captures(none) %0, i32 noundef %1, ptr noundef writeonly captures(none) initializes((0, 8)) %2) local_unnamed_addr #11 {
  %4 = alloca %struct.stbtt__csctx, align 8
  %5 = alloca %struct.stbtt__csctx, align 8
  %6 = tail call i32 @stbtt_FindGlyphIndex(ptr noundef %0, i32 noundef %1)
  %7 = getelementptr inbounds nuw i8, ptr %0, i64 76
  %8 = load i32, ptr %7, align 4, !tbaa !39
  %.not.i = icmp eq i32 %8, 0
  br i1 %.not.i, label %9, label %11

9:                                                ; preds = %3
  %10 = tail call i32 @stbtt__GetGlyphShapeTT(ptr noundef nonnull readonly %0, i32 noundef %6, ptr noundef %2)
  br label %stbtt_GetGlyphShape.exit

11:                                               ; preds = %3
  call void @llvm.lifetime.start.p0(i64 56, ptr nonnull %4) #32
  call void @llvm.memset.p0.i64(ptr noundef nonnull align 8 dereferenceable(56) %4, i8 0, i64 56, i1 false)
  store i32 1, ptr %4, align 8
  call void @llvm.lifetime.start.p0(i64 56, ptr nonnull %5) #32
  call void @llvm.memset.p0.i64(ptr noundef nonnull align 8 dereferenceable(56) %5, i8 0, i64 56, i1 false)
  %12 = call i32 @stbtt__run_charstring(ptr noundef nonnull readonly %0, i32 noundef %6, ptr noundef nonnull %4)
  %.not.i.i = icmp eq i32 %12, 0
  br i1 %.not.i.i, label %24, label %13

13:                                               ; preds = %11
  %14 = getelementptr inbounds nuw i8, ptr %4, i64 48
  %15 = load i32, ptr %14, align 8, !tbaa !40
  %16 = sext i32 %15 to i64
  %17 = mul nsw i64 %16, 14
  %18 = call noalias ptr @malloc(i64 noundef %17) #33
  store ptr %18, ptr %2, align 8, !tbaa !43
  %19 = getelementptr inbounds nuw i8, ptr %5, i64 40
  store ptr %18, ptr %19, align 8, !tbaa !44
  %20 = call i32 @stbtt__run_charstring(ptr noundef nonnull readonly %0, i32 noundef %6, ptr noundef nonnull %5)
  %.not7.i.i = icmp eq i32 %20, 0
  br i1 %.not7.i.i, label %24, label %21

21:                                               ; preds = %13
  %22 = getelementptr inbounds nuw i8, ptr %5, i64 48
  %23 = load i32, ptr %22, align 8, !tbaa !40
  br label %stbtt__GetGlyphShapeT2.exit.i

24:                                               ; preds = %13, %11
  store ptr null, ptr %2, align 8, !tbaa !43
  br label %stbtt__GetGlyphShapeT2.exit.i

stbtt__GetGlyphShapeT2.exit.i:                    ; preds = %24, %21
  %.0.i.i = phi i32 [ %23, %21 ], [ 0, %24 ]
  call void @llvm.lifetime.end.p0(i64 56, ptr nonnull %5) #32
  call void @llvm.lifetime.end.p0(i64 56, ptr nonnull %4) #32
  br label %stbtt_GetGlyphShape.exit

stbtt_GetGlyphShape.exit:                         ; preds = %9, %stbtt__GetGlyphShapeT2.exit.i
  %.0.i = phi i32 [ %.0.i.i, %stbtt__GetGlyphShapeT2.exit.i ], [ %10, %9 ]
  ret i32 %.0.i
}